; Function Attrs: mustprogress uwtable
define noundef zeroext i1 @_ZN32pxrInternal_v0_24__pxrReserved__15UsdGeomCylinder13ComputeExtentEddRKNS_7TfTokenEPNS_7VtArrayINS_7GfVec3fEEE(double noundef %0, double noundef %1, ptr nocapture noundef nonnull readonly align 8 dereferenceable(8) %2, ptr noundef nonnull %3) local_unnamed_addr #8 align 2 {
  %5 = alloca %"class.pxrInternal_v0_24__pxrReserved__::GfVec3f", align 4
  tail call void @_ZN32pxrInternal_v0_24__pxrReserved__7VtArrayINS_7GfVec3fEE6resizeEm(ptr noundef nonnull align 8 dereferenceable(40) %3, i64 noundef 2)
  %6 = call fastcc noundef zeroext i1 @_ZN32pxrInternal_v0_24__pxrReserved__L17_ComputeExtentMaxEddRKNS_7TfTokenEPNS_7GfVec3fE(double noundef %0, double noundef %1, ptr noundef nonnull align 8 dereferenceable(8) %2, ptr noundef nonnull %5)
  br i1 %6, label %7, label %18

7:                                                ; preds = %4
  %8 = load float, ptr %5, align 4
  %9 = fneg float %8
  %10 = getelementptr inbounds i8, ptr %5, i64 4
  %11 = load float, ptr %10, align 4
  %12 = fneg float %11
  %13 = getelementptr inbounds i8, ptr %5, i64 8
  %14 = load float, ptr %13, align 4
  %15 = fneg float %14
  %.sroa.0.0.vec.insert.i = insertelement <2 x float> poison, float %9, i64 0
  %.sroa.0.4.vec.insert.i = insertelement <2 x float> %.sroa.0.0.vec.insert.i, float %12, i64 1
  %16 = tail call noundef nonnull align 4 dereferenceable(12) ptr @_ZN32pxrInternal_v0_24__pxrReserved__7VtArrayINS_7GfVec3fEEixEm(ptr noundef nonnull align 8 dereferenceable(40) %3, i64 noundef 0)
  store <2 x float> %.sroa.0.4.vec.insert.i, ptr %16, align 4
  %.sroa.22.0..sroa_idx = getelementptr inbounds i8, ptr %16, i64 8
  store float %15, ptr %.sroa.22.0..sroa_idx, align 4
  %17 = tail call noundef nonnull align 4 dereferenceable(12) ptr @_ZN32pxrInternal_v0_24__pxrReserved__7VtArrayINS_7GfVec3fEEixEm(ptr noundef nonnull align 8 dereferenceable(40) %3, i64 noundef 1)
  call void @llvm.memcpy.p0.p0.i64(ptr noundef nonnull align 4 dereferenceable(12) %17, ptr noundef nonnull align 4 dereferenceable(12) %5, i64 12, i1 false)
  br label %18

18:                                               ; preds = %4, %7
  ret i1 %6
}